; ModuleID = '17/1268.c'
source_filename = "17/1268.c"
target datalayout = "e-m:e-p270:32:32-p271:32:32-p272:64:64-i64:64-f80:128-n8:16:32:64-S128"
target triple = "x86_64-pc-linux-gnu"

@.str = private unnamed_addr constant [4 x i8] c"%s\0A\00", align 1

; Function Attrs: noinline nounwind uwtable
define dso_local i32 @main(i32 %0, i8** %1) #0 {
  %3 = alloca i32, align 4
  %4 = alloca i32, align 4
  %5 = alloca i8**, align 8
  %6 = alloca i32, align 4
  %7 = alloca i32, align 4
  %8 = alloca i32, align 4
  %9 = alloca i32, align 4
  %10 = alloca i32, align 4
  %11 = alloca i32, align 4
  %12 = alloca [101 x i32], align 16
  %13 = alloca [101 x i8], align 16
  %14 = alloca [101 x i8], align 16
  store i32 0, i32* %3, align 4
  store i32 %0, i32* %4, align 4
  store i8** %1, i8*** %5, align 8
  store i32 0, i32* %6, align 4
  br label %15

15:                                               ; preds = %128, %2
  %16 = getelementptr inbounds [101 x i8], [101 x i8]* %13, i64 0, i64 0
  %17 = call i32 (i8*, ...) bitcast (i32 (...)* @gets to i32 (i8*, ...)*)(i8* %16)
  %18 = icmp ne i32 %17, 0
  br i1 %18, label %19, label %133

19:                                               ; preds = %15
  %20 = getelementptr inbounds [101 x i8], [101 x i8]* %14, i64 0, i64 0
  %21 = getelementptr inbounds [101 x i8], [101 x i8]* %13, i64 0, i64 0
  %22 = call i8* @strcpy(i8* %20, i8* %21) #3
  store i32 0, i32* %7, align 4
  store i32 0, i32* %8, align 4
  br label %23

23:                                               ; preds = %44, %19
  %24 = load i32, i32* %7, align 4
  %25 = sext i32 %24 to i64
  %26 = getelementptr inbounds [101 x i8], [101 x i8]* %13, i64 0, i64 %25
  %27 = load i8, i8* %26, align 1
  %28 = icmp ne i8 %27, 0
  br i1 %28, label %29, label %47

29:                                               ; preds = %23
  %30 = load i32, i32* %7, align 4
  %31 = sext i32 %30 to i64
  %32 = getelementptr inbounds [101 x i8], [101 x i8]* %13, i64 0, i64 %31
  %33 = load i8, i8* %32, align 1
  %34 = sext i8 %33 to i32
  %35 = icmp eq i32 %34, 40
  br i1 %35, label %36, label %43

36:                                               ; preds = %29
  %37 = load i32, i32* %7, align 4
  %38 = load i32, i32* %8, align 4
  %39 = sext i32 %38 to i64
  %40 = getelementptr inbounds [101 x i32], [101 x i32]* %12, i64 0, i64 %39
  store i32 %37, i32* %40, align 4
  %41 = load i32, i32* %8, align 4
  %42 = add nsw i32 %41, 1
  store i32 %42, i32* %8, align 4
  br label %43

43:                                               ; preds = %36, %29
  br label %44

44:                                               ; preds = %43
  %45 = load i32, i32* %7, align 4
  %46 = add nsw i32 %45, 1
  store i32 %46, i32* %7, align 4
  br label %23

47:                                               ; preds = %23
  %48 = load i32, i32* %8, align 4
  %49 = sub nsw i32 %48, 1
  store i32 %49, i32* %11, align 4
  br label %50

50:                                               ; preds = %87, %47
  %51 = load i32, i32* %11, align 4
  %52 = icmp sge i32 %51, 0
  br i1 %52, label %53, label %90

53:                                               ; preds = %50
  %54 = load i32, i32* %11, align 4
  %55 = sext i32 %54 to i64
  %56 = getelementptr inbounds [101 x i32], [101 x i32]* %12, i64 0, i64 %55
  %57 = load i32, i32* %56, align 4
  %58 = add nsw i32 %57, 1
  store i32 %58, i32* %10, align 4
  br label %59

59:                                               ; preds = %83, %53
  %60 = load i32, i32* %10, align 4
  %61 = sext i32 %60 to i64
  %62 = getelementptr inbounds [101 x i8], [101 x i8]* %13, i64 0, i64 %61
  %63 = load i8, i8* %62, align 1
  %64 = icmp ne i8 %63, 0
  br i1 %64, label %65, label %86

65:                                               ; preds = %59
  %66 = load i32, i32* %10, align 4
  %67 = sext i32 %66 to i64
  %68 = getelementptr inbounds [101 x i8], [101 x i8]* %14, i64 0, i64 %67
  %69 = load i8, i8* %68, align 1
  %70 = sext i8 %69 to i32
  %71 = icmp eq i32 %70, 41
  br i1 %71, label %72, label %82

72:                                               ; preds = %65
  %73 = load i32, i32* %11, align 4
  %74 = sext i32 %73 to i64
  %75 = getelementptr inbounds [101 x i32], [101 x i32]* %12, i64 0, i64 %74
  %76 = load i32, i32* %75, align 4
  %77 = sext i32 %76 to i64
  %78 = getelementptr inbounds [101 x i8], [101 x i8]* %14, i64 0, i64 %77
  store i8 32, i8* %78, align 1
  %79 = load i32, i32* %10, align 4
  %80 = sext i32 %79 to i64
  %81 = getelementptr inbounds [101 x i8], [101 x i8]* %14, i64 0, i64 %80
  store i8 32, i8* %81, align 1
  br label %86

82:                                               ; preds = %65
  br label %83

83:                                               ; preds = %82
  %84 = load i32, i32* %10, align 4
  %85 = add nsw i32 %84, 1
  store i32 %85, i32* %10, align 4
  br label %59

86:                                               ; preds = %72, %59
  br label %87

87:                                               ; preds = %86
  %88 = load i32, i32* %11, align 4
  %89 = add nsw i32 %88, -1
  store i32 %89, i32* %11, align 4
  br label %50

90:                                               ; preds = %50
  store i32 0, i32* %9, align 4
  br label %91

91:                                               ; preds = %125, %90
  %92 = load i32, i32* %9, align 4
  %93 = sext i32 %92 to i64
  %94 = getelementptr inbounds [101 x i8], [101 x i8]* %13, i64 0, i64 %93
  %95 = load i8, i8* %94, align 1
  %96 = icmp ne i8 %95, 0
  br i1 %96, label %97, label %128

97:                                               ; preds = %91
  %98 = load i32, i32* %9, align 4
  %99 = sext i32 %98 to i64
  %100 = getelementptr inbounds [101 x i8], [101 x i8]* %14, i64 0, i64 %99
  %101 = load i8, i8* %100, align 1
  %102 = sext i8 %101 to i32
  %103 = icmp eq i32 %102, 40
  br i1 %103, label %104, label %108

104:                                              ; preds = %97
  %105 = load i32, i32* %9, align 4
  %106 = sext i32 %105 to i64
  %107 = getelementptr inbounds [101 x i8], [101 x i8]* %14, i64 0, i64 %106
  store i8 36, i8* %107, align 1
  br label %124

108:                                              ; preds = %97
  %109 = load i32, i32* %9, align 4
  %110 = sext i32 %109 to i64
  %111 = getelementptr inbounds [101 x i8], [101 x i8]* %14, i64 0, i64 %110
  %112 = load i8, i8* %111, align 1
  %113 = sext i8 %112 to i32
  %114 = icmp eq i32 %113, 41
  br i1 %114, label %115, label %119

115:                                              ; preds = %108
  %116 = load i32, i32* %9, align 4
  %117 = sext i32 %116 to i64
  %118 = getelementptr inbounds [101 x i8], [101 x i8]* %14, i64 0, i64 %117
  store i8 63, i8* %118, align 1
  br label %123

119:                                              ; preds = %108
  %120 = load i32, i32* %9, align 4
  %121 = sext i32 %120 to i64
  %122 = getelementptr inbounds [101 x i8], [101 x i8]* %14, i64 0, i64 %121
  store i8 32, i8* %122, align 1
  br label %123

123:                                              ; preds = %119, %115
  br label %124

124:                                              ; preds = %123, %104
  br label %125

125:                                              ; preds = %124
  %126 = load i32, i32* %9, align 4
  %127 = add nsw i32 %126, 1
  store i32 %127, i32* %9, align 4
  br label %91

128:                                              ; preds = %91
  %129 = getelementptr inbounds [101 x i8], [101 x i8]* %13, i64 0, i64 0
  %130 = call i32 (i8*, ...) @printf(i8* getelementptr inbounds ([4 x i8], [4 x i8]* @.str, i64 0, i64 0), i8* %129)
  %131 = getelementptr inbounds [101 x i8], [101 x i8]* %14, i64 0, i64 0
  %132 = call i32 (i8*, ...) @printf(i8* getelementptr inbounds ([4 x i8], [4 x i8]* @.str, i64 0, i64 0), i8* %131)
  br label %15

133:                                              ; preds = %15
  ret i32 0
}

declare dso_local i32 @gets(...) #1

; Function Attrs: nounwind
declare dso_local i8* @strcpy(i8*, i8*) #2

declare dso_local i32 @printf(i8*, ...) #1


!llvm.module.flags = !{!0}
!llvm.ident = !{!1}

!0 = !{i32 1, !"wchar_size", i32 4}
!1 = !{!"clang version 10.0.0-4ubuntu1 "}
